target datalayout = "e-m:e-p270:32:32-p271:32:32-p272:64:64-i64:64-i128:128-f80:128-n8:16:32:64-S128"
target triple = "x86_64-pc-linux-gnu"

%struct._packet_info = type { ptr, ptr, i32, i32, %struct.nstime_t, %struct.nstime_t, %struct.nstime_t, i8, ptr, ptr, ptr, ptr, %struct._address, %struct._address, %struct._address, %struct._address, %struct._address, %struct._address, i32, ptr, i8, [3 x i8], %struct.anon, i32, i32, i32, i32, ptr, i8, ptr, ptr, i16, i16, i32, i32, i16, i32, i32, ptr, ptr, ptr, i8, i8, i16, i16, i16, i32, i16, i16, ptr, ptr, ptr, ptr, ptr, i32, i32 }
%struct.nstime_t = type { i64, i32 }
%struct._address = type { i32, i32, ptr, ptr }
%struct.anon = type { i8, [3 x i8] }

@hf_kafka_error = internal global i32 0, align 4
@hf_kafka_error_message = internal global i32 0, align 4
@hf_kafka_partition_id = internal global i32 0, align 4
@ett_kafka_replicas = internal global i32 0, align 4
@ett_kafka_partition = internal global i32 0, align 4
@.str.628 = private unnamed_addr constant [11 x i8] c"Unknown %d\00", align 1
@.str.643 = private unnamed_addr constant [10 x i8] c"Partition\00", align 1
@.str.679 = private unnamed_addr constant [17 x i8] c"Current Replicas\00", align 1
@.str.680 = private unnamed_addr constant [16 x i8] c"Adding Replicas\00", align 1
@.str.681 = private unnamed_addr constant [18 x i8] c"Removing Replicas\00", align 1
@.str.742 = private unnamed_addr constant [7 x i8] c" [%s] \00", align 1

; Function Attrs: null_pointer_is_valid sspstrong uwtable
define internal ptr @kafka_error_to_str(i16 noundef signext %0) #0 {
  %2 = alloca i16, align 2
  store i16 %0, ptr %2, align 2
  %3 = load i16, ptr %2, align 2
  %4 = sext i16 %3 to i32
  %5 = call ptr @val_to_str(i32 noundef %4, ptr noundef @kafka_errors, ptr noundef @.str.628)
  ret ptr %5
}

; Function Attrs: null_pointer_is_valid sspstrong uwtable
define internal i32 @dissect_kafka_error_ret(ptr noundef %0, ptr noundef %1, ptr noundef %2, i32 noundef %3, ptr noundef %4) #0 {
  %6 = alloca ptr, align 8
  %7 = alloca ptr, align 8
  %8 = alloca ptr, align 8
  %9 = alloca i32, align 4
  %10 = alloca ptr, align 8
  %11 = alloca i16, align 2
  store ptr %0, ptr %6, align 8
  store ptr %1, ptr %7, align 8
  store ptr %2, ptr %8, align 8
  store i32 %3, ptr %9, align 4
  store ptr %4, ptr %10, align 8
  call void @llvm.lifetime.start.p0(i64 2, ptr %11) #12
  %12 = load ptr, ptr %6, align 8
  %13 = load i32, ptr %9, align 4
  %14 = call zeroext i16 @tvb_get_ntohs(ptr noundef %12, i32 noundef %13)
  store i16 %14, ptr %11, align 2
  %15 = load ptr, ptr %8, align 8
  %16 = load i32, ptr @hf_kafka_error, align 4
  %17 = load ptr, ptr %6, align 8
  %18 = load i32, ptr %9, align 4
  %19 = call ptr @proto_tree_add_item(ptr noundef %15, i32 noundef %16, ptr noundef %17, i32 noundef %18, i32 noundef 2, i32 noundef 0)
  %20 = load i32, ptr %9, align 4
  %21 = add i32 %20, 2
  store i32 %21, ptr %9, align 4
  %22 = load i16, ptr %11, align 2
  %23 = sext i16 %22 to i32
  %24 = icmp ne i32 %23, 0
  br i1 %24, label %25, label %31

25:                                               ; preds = %5
  %26 = load ptr, ptr %7, align 8
  %27 = getelementptr inbounds nuw %struct._packet_info, ptr %26, i32 0, i32 1
  %28 = load ptr, ptr %27, align 8
  %29 = load i16, ptr %11, align 2
  %30 = call ptr @kafka_error_to_str(i16 noundef signext %29)
  call void (ptr, i32, ptr, ...) @col_append_fstr(ptr noundef %28, i32 noundef 25, ptr noundef @.str.742, ptr noundef %30)
  br label %31

31:                                               ; preds = %25, %5
  %32 = load ptr, ptr %10, align 8
  %33 = icmp ne ptr %32, null
  br i1 %33, label %34, label %37

34:                                               ; preds = %31
  %35 = load i16, ptr %11, align 2
  %36 = load ptr, ptr %10, align 8
  store i16 %35, ptr %36, align 2
  br label %37

37:                                               ; preds = %34, %31
  %38 = load i32, ptr %9, align 4
  call void @llvm.lifetime.end.p0(i64 2, ptr %11) #12
  ret i32 %38
}

; Function Attrs: null_pointer_is_valid sspstrong uwtable
define internal i32 @dissect_kafka_error(ptr noundef %0, ptr noundef %1, ptr noundef %2, i32 noundef %3) #0 {
  %5 = alloca ptr, align 8
  %6 = alloca ptr, align 8
  %7 = alloca ptr, align 8
  %8 = alloca i32, align 4
  store ptr %0, ptr %5, align 8
  store ptr %1, ptr %6, align 8
  store ptr %2, ptr %7, align 8
  store i32 %3, ptr %8, align 4
  %9 = load ptr, ptr %5, align 8
  %10 = load ptr, ptr %6, align 8
  %11 = load ptr, ptr %7, align 8
  %12 = load i32, ptr %8, align 4
  %13 = call i32 @dissect_kafka_error_ret(ptr noundef %9, ptr noundef %10, ptr noundef %11, i32 noundef %12, ptr noundef null)
  ret i32 %13
}

; Function Attrs: null_pointer_is_valid sspstrong uwtable
define internal i32 @dissect_kafka_partition_id_ret(ptr noundef %0, ptr noundef %1, ptr noundef %2, i32 noundef %3, ptr noundef %4) #0 {
  %6 = alloca ptr, align 8
  %7 = alloca ptr, align 8
  %8 = alloca ptr, align 8
  %9 = alloca i32, align 4
  %10 = alloca ptr, align 8
  store ptr %0, ptr %6, align 8
  store ptr %1, ptr %7, align 8
  store ptr %2, ptr %8, align 8
  store i32 %3, ptr %9, align 4
  store ptr %4, ptr %10, align 8
  %11 = load ptr, ptr %8, align 8
  %12 = load i32, ptr @hf_kafka_partition_id, align 4
  %13 = load ptr, ptr %6, align 8
  %14 = load i32, ptr %9, align 4
  %15 = call ptr @proto_tree_add_item(ptr noundef %11, i32 noundef %12, ptr noundef %13, i32 noundef %14, i32 noundef 4, i32 noundef 0)
  %16 = load ptr, ptr %10, align 8
  %17 = icmp ne ptr %16, null
  br i1 %17, label %18, label %23

18:                                               ; preds = %5
  %19 = load ptr, ptr %6, align 8
  %20 = load i32, ptr %9, align 4
  %21 = call i32 @tvb_get_ntohl(ptr noundef %19, i32 noundef %20)
  %22 = load ptr, ptr %10, align 8
  store i32 %21, ptr %22, align 4
  br label %23

23:                                               ; preds = %18, %5
  %24 = load i32, ptr %9, align 4
  %25 = add i32 %24, 4
  store i32 %25, ptr %9, align 4
  %26 = load i32, ptr %9, align 4
  ret i32 %26
}

; Function Attrs: null_pointer_is_valid sspstrong uwtable
define internal i32 @dissect_kafka_list_partition_reassignments_response_partition(ptr noundef %0, ptr noundef %1, ptr noundef %2, i32 noundef %3, i16 noundef signext %4) #0 {
  %6 = alloca ptr, align 8
  %7 = alloca ptr, align 8
  %8 = alloca ptr, align 8
  %9 = alloca i32, align 4
  %10 = alloca i16, align 2
  %11 = alloca ptr, align 8
  %12 = alloca ptr, align 8
  %13 = alloca ptr, align 8
  %14 = alloca ptr, align 8
  %15 = alloca i32, align 4
  store ptr %0, ptr %6, align 8
  store ptr %1, ptr %7, align 8
  store ptr %2, ptr %8, align 8
  store i32 %3, ptr %9, align 4
  store i16 %4, ptr %10, align 2
  call void @llvm.lifetime.start.p0(i64 8, ptr %11) #12
  call void @llvm.lifetime.start.p0(i64 8, ptr %12) #12
  call void @llvm.lifetime.start.p0(i64 8, ptr %13) #12
  call void @llvm.lifetime.start.p0(i64 8, ptr %14) #12
  call void @llvm.lifetime.start.p0(i64 4, ptr %15) #12
  %16 = load ptr, ptr %8, align 8
  %17 = load ptr, ptr %6, align 8
  %18 = load i32, ptr %9, align 4
  %19 = load i32, ptr @ett_kafka_partition, align 4
  %20 = call ptr @proto_tree_add_subtree(ptr noundef %16, ptr noundef %17, i32 noundef %18, i32 noundef -1, i32 noundef %19, ptr noundef %11, ptr noundef @.str.643)
  store ptr %20, ptr %13, align 8
  %21 = load ptr, ptr %6, align 8
  %22 = load ptr, ptr %7, align 8
  %23 = load ptr, ptr %13, align 8
  %24 = load i32, ptr %9, align 4
  %25 = call i32 @dissect_kafka_partition_id_ret(ptr noundef %21, ptr noundef %22, ptr noundef %23, i32 noundef %24, ptr noundef %15)
  store i32 %25, ptr %9, align 4
  %26 = load ptr, ptr %6, align 8
  %27 = load ptr, ptr %7, align 8
  %28 = load ptr, ptr %13, align 8
  %29 = load i32, ptr %9, align 4
  %30 = call i32 @dissect_kafka_error(ptr noundef %26, ptr noundef %27, ptr noundef %28, i32 noundef %29)
  store i32 %30, ptr %9, align 4
  %31 = load ptr, ptr %13, align 8
  %32 = load i32, ptr @hf_kafka_error_message, align 4
  %33 = load ptr, ptr %6, align 8
  %34 = load ptr, ptr %7, align 8
  %35 = load i32, ptr %9, align 4
  %36 = load i16, ptr %10, align 2
  %37 = sext i16 %36 to i32
  %38 = icmp sge i32 %37, 0
  %39 = zext i1 %38 to i32
  %40 = call i32 @dissect_kafka_string(ptr noundef %31, i32 noundef %32, ptr noundef %33, ptr noundef %34, i32 noundef %35, i32 noundef %39, ptr noundef null, ptr noundef null)
  store i32 %40, ptr %9, align 4
  %41 = load ptr, ptr %13, align 8
  %42 = load ptr, ptr %6, align 8
  %43 = load i32, ptr %9, align 4
  %44 = load i32, ptr @ett_kafka_replicas, align 4
  %45 = call ptr @proto_tree_add_subtree(ptr noundef %41, ptr noundef %42, i32 noundef %43, i32 noundef -1, i32 noundef %44, ptr noundef %12, ptr noundef @.str.679)
  store ptr %45, ptr %14, align 8
  %46 = load ptr, ptr %14, align 8
  %47 = load ptr, ptr %6, align 8
  %48 = load ptr, ptr %7, align 8
  %49 = load i32, ptr %9, align 4
  %50 = load i16, ptr %10, align 2
  %51 = sext i16 %50 to i32
  %52 = icmp sge i32 %51, 0
  %53 = zext i1 %52 to i32
  %54 = load i16, ptr %10, align 2
  %55 = call i32 @dissect_kafka_array(ptr noundef %46, ptr noundef %47, ptr noundef %48, i32 noundef %49, i32 noundef %53, i16 noundef signext %54, ptr noundef @dissect_kafka_list_partition_reassignments_response_replica, ptr noundef null)
  store i32 %55, ptr %9, align 4
  %56 = load ptr, ptr %12, align 8
  %57 = load ptr, ptr %6, align 8
  %58 = load i32, ptr %9, align 4
  call void @proto_item_set_end(ptr noundef %56, ptr noundef %57, i32 noundef %58)
  %59 = load ptr, ptr %13, align 8
  %60 = load ptr, ptr %6, align 8
  %61 = load i32, ptr %9, align 4
  %62 = load i32, ptr @ett_kafka_replicas, align 4
  %63 = call ptr @proto_tree_add_subtree(ptr noundef %59, ptr noundef %60, i32 noundef %61, i32 noundef -1, i32 noundef %62, ptr noundef %12, ptr noundef @.str.680)
  store ptr %63, ptr %14, align 8
  %64 = load ptr, ptr %14, align 8
  %65 = load ptr, ptr %6, align 8
  %66 = load ptr, ptr %7, align 8
  %67 = load i32, ptr %9, align 4
  %68 = load i16, ptr %10, align 2
  %69 = sext i16 %68 to i32
  %70 = icmp sge i32 %69, 0
  %71 = zext i1 %70 to i32
  %72 = load i16, ptr %10, align 2
  %73 = call i32 @dissect_kafka_array(ptr noundef %64, ptr noundef %65, ptr noundef %66, i32 noundef %67, i32 noundef %71, i16 noundef signext %72, ptr noundef @dissect_kafka_list_partition_reassignments_response_replica, ptr noundef null)
  store i32 %73, ptr %9, align 4
  %74 = load ptr, ptr %12, align 8
  %75 = load ptr, ptr %6, align 8
  %76 = load i32, ptr %9, align 4
  call void @proto_item_set_end(ptr noundef %74, ptr noundef %75, i32 noundef %76)
  %77 = load ptr, ptr %13, align 8
  %78 = load ptr, ptr %6, align 8
  %79 = load i32, ptr %9, align 4
  %80 = load i32, ptr @ett_kafka_replicas, align 4
  %81 = call ptr @proto_tree_add_subtree(ptr noundef %77, ptr noundef %78, i32 noundef %79, i32 noundef -1, i32 noundef %80, ptr noundef %12, ptr noundef @.str.681)
  store ptr %81, ptr %14, align 8
  %82 = load ptr, ptr %14, align 8
  %83 = load ptr, ptr %6, align 8
  %84 = load ptr, ptr %7, align 8
  %85 = load i32, ptr %9, align 4
  %86 = load i16, ptr %10, align 2
  %87 = sext i16 %86 to i32
  %88 = icmp sge i32 %87, 0
  %89 = zext i1 %88 to i32
  %90 = load i16, ptr %10, align 2
  %91 = call i32 @dissect_kafka_array(ptr noundef %82, ptr noundef %83, ptr noundef %84, i32 noundef %85, i32 noundef %89, i16 noundef signext %90, ptr noundef @dissect_kafka_list_partition_reassignments_response_replica, ptr noundef null)
  store i32 %91, ptr %9, align 4
  %92 = load ptr, ptr %12, align 8
  %93 = load ptr, ptr %6, align 8
  %94 = load i32, ptr %9, align 4
  call void @proto_item_set_end(ptr noundef %92, ptr noundef %93, i32 noundef %94)
  %95 = load ptr, ptr %6, align 8
  %96 = load ptr, ptr %7, align 8
  %97 = load ptr, ptr %13, align 8
  %98 = load i32, ptr %9, align 4
  %99 = call i32 @dissect_kafka_tagged_fields(ptr noundef %95, ptr noundef %96, ptr noundef %97, i32 noundef %98, i16 noundef signext 0)
  store i32 %99, ptr %9, align 4
  %100 = load ptr, ptr %11, align 8
  %101 = load ptr, ptr %6, align 8
  %102 = load i32, ptr %9, align 4
  call void @proto_item_set_end(ptr noundef %100, ptr noundef %101, i32 noundef %102)
  %103 = load i32, ptr %9, align 4
  call void @llvm.lifetime.end.p0(i64 4, ptr %15) #12
  call void @llvm.lifetime.end.p0(i64 8, ptr %14) #12
  call void @llvm.lifetime.end.p0(i64 8, ptr %13) #12
  call void @llvm.lifetime.end.p0(i64 8, ptr %12) #12
  call void @llvm.lifetime.end.p0(i64 8, ptr %11) #12
  ret i32 %103
}