; Function Attrs: null_pointer_is_valid sspstrong uwtable
define internal noundef i32 @dissect_kafka_list_partition_reassignments_response_partition(ptr noundef %0, ptr noundef %1, ptr noundef %2, i32 noundef %3, i16 noundef signext %4) #0 {
  %6 = alloca ptr, align 8
  %7 = alloca ptr, align 8
  call void @llvm.lifetime.start.p0(i64 8, ptr nonnull %6) #9
  call void @llvm.lifetime.start.p0(i64 8, ptr nonnull %7) #9
  %8 = load i32, ptr @ett_kafka_partition, align 4
  %9 = call ptr @proto_tree_add_subtree(ptr noundef %2, ptr noundef %0, i32 noundef %3, i32 noundef -1, i32 noundef %8, ptr noundef nonnull %6, ptr noundef nonnull @.str.643)
  %10 = load i32, ptr @hf_kafka_partition_id, align 4
  %11 = call ptr @proto_tree_add_item(ptr noundef %9, i32 noundef %10, ptr noundef %0, i32 noundef %3, i32 noundef 4, i32 noundef 0)
  %12 = call i32 @tvb_get_ntohl(ptr noundef %0, i32 noundef %3)
  %13 = add i32 %3, 4
  %14 = call zeroext i16 @tvb_get_ntohs(ptr noundef %0, i32 noundef %13)
  %15 = load i32, ptr @hf_kafka_error, align 4
  %16 = call ptr @proto_tree_add_item(ptr noundef %9, i32 noundef %15, ptr noundef %0, i32 noundef %13, i32 noundef 2, i32 noundef 0)
  %.not.i.i = icmp eq i16 %14, 0
  br i1 %.not.i.i, label %dissect_kafka_error.exit, label %17

17:                                               ; preds = %5
  %18 = getelementptr inbounds nuw i8, ptr %1, i64 8
  %19 = load ptr, ptr %18, align 8
  %20 = sext i16 %14 to i32
  %21 = call ptr @val_to_str(i32 noundef %20, ptr noundef nonnull @kafka_errors, ptr noundef nonnull @.str.628)
  call void (ptr, i32, ptr, ...) @col_append_fstr(ptr noundef %19, i32 noundef 25, ptr noundef nonnull @.str.742, ptr noundef %21)
  br label %dissect_kafka_error.exit

dissect_kafka_error.exit:                         ; preds = %5, %17
  %22 = add i32 %3, 6
  %23 = load i32, ptr @hf_kafka_error_message, align 4
  %24 = icmp sgt i16 %4, -1
  %25 = zext i1 %24 to i32
  %26 = call fastcc i32 @dissect_kafka_string(ptr noundef %9, i32 noundef %23, ptr noundef %0, ptr noundef %1, i32 noundef %22, i32 noundef %25, ptr noundef null, ptr noundef null)
  %27 = load i32, ptr @ett_kafka_replicas, align 4
  %28 = call ptr @proto_tree_add_subtree(ptr noundef %9, ptr noundef %0, i32 noundef %26, i32 noundef -1, i32 noundef %27, ptr noundef nonnull %7, ptr noundef nonnull @.str.679)
  %29 = call fastcc i32 @dissect_kafka_array(ptr noundef %28, ptr noundef %0, ptr noundef %1, i32 noundef %26, i32 noundef %25, i16 noundef signext %4, ptr noundef nonnull @dissect_kafka_list_partition_reassignments_response_replica, ptr noundef null)
  %30 = load ptr, ptr %7, align 8
  call void @proto_item_set_end(ptr noundef %30, ptr noundef %0, i32 noundef %29)
  %31 = load i32, ptr @ett_kafka_replicas, align 4
  %32 = call ptr @proto_tree_add_subtree(ptr noundef %9, ptr noundef %0, i32 noundef %29, i32 noundef -1, i32 noundef %31, ptr noundef nonnull %7, ptr noundef nonnull @.str.680)
  %33 = call fastcc i32 @dissect_kafka_array(ptr noundef %32, ptr noundef %0, ptr noundef %1, i32 noundef %29, i32 noundef %25, i16 noundef signext %4, ptr noundef nonnull @dissect_kafka_list_partition_reassignments_response_replica, ptr noundef null)
  %34 = load ptr, ptr %7, align 8
  call void @proto_item_set_end(ptr noundef %34, ptr noundef %0, i32 noundef %33)
  %35 = load i32, ptr @ett_kafka_replicas, align 4
  %36 = call ptr @proto_tree_add_subtree(ptr noundef %9, ptr noundef %0, i32 noundef %33, i32 noundef -1, i32 noundef %35, ptr noundef nonnull %7, ptr noundef nonnull @.str.681)
  %37 = call fastcc i32 @dissect_kafka_array(ptr noundef %36, ptr noundef %0, ptr noundef %1, i32 noundef %33, i32 noundef %25, i16 noundef signext %4, ptr noundef nonnull @dissect_kafka_list_partition_reassignments_response_replica, ptr noundef null)
  %38 = load ptr, ptr %7, align 8
  call void @proto_item_set_end(ptr noundef %38, ptr noundef %0, i32 noundef %37)
  %39 = call fastcc i32 @dissect_kafka_tagged_fields(ptr noundef %0, ptr noundef %1, ptr noundef %9, i32 noundef %37)
  %40 = load ptr, ptr %6, align 8
  call void @proto_item_set_end(ptr noundef %40, ptr noundef %0, i32 noundef %39)
  call void @llvm.lifetime.end.p0(i64 8, ptr nonnull %7) #9
  call void @llvm.lifetime.end.p0(i64 8, ptr nonnull %6) #9
  ret i32 %39
}